target datalayout = "e-m:e-p270:32:32-p271:32:32-p272:64:64-i64:64-i128:128-f80:128-n8:16:32:64-S128"
target triple = "x86_64-unknown-linux-gnu"

%class.b3Vector3 = type { %union.anon }
%union.anon = type { [4 x float] }
%struct.b3ConvexPolyhedronData = type { %class.b3Vector3, %class.b3Vector3, %class.b3Vector3, %class.b3Vector3, float, i32, i32, i32, i32, i32, i32, i32 }
%struct.b3GpuFace = type { %class.b3Vector3, i32, i32, i32, i32 }
%struct.anon = type { float, float, float, float }
%class.b3AlignedObjectArray = type <{ %class.b3AlignedAllocator, [3 x i8], i32, i32, [4 x i8], ptr, i8, [7 x i8] }>
%class.b3AlignedAllocator = type { i8 }

; Function Attrs: mustprogress nounwind uwtable
define linkonce_odr dso_local noundef float @_ZNK9b3Vector33dotERKS_(ptr noundef nonnull align 16 dereferenceable(16) %this, ptr noundef nonnull align 16 dereferenceable(16) %v) #4 comdat align 2 {
entry:
  %this.addr = alloca ptr, align 8
  %v.addr = alloca ptr, align 8
  store ptr %this, ptr %this.addr, align 8
  store ptr %v, ptr %v.addr, align 8
  %this1 = load ptr, ptr %this.addr, align 8
  %0 = getelementptr inbounds %class.b3Vector3, ptr %this1, i32 0, i32 0
  %arrayidx = getelementptr inbounds [4 x float], ptr %0, i64 0, i64 0
  %1 = load float, ptr %arrayidx, align 16
  %2 = load ptr, ptr %v.addr, align 8
  %3 = getelementptr inbounds %class.b3Vector3, ptr %2, i32 0, i32 0
  %arrayidx2 = getelementptr inbounds [4 x float], ptr %3, i64 0, i64 0
  %4 = load float, ptr %arrayidx2, align 16
  %5 = getelementptr inbounds %class.b3Vector3, ptr %this1, i32 0, i32 0
  %arrayidx3 = getelementptr inbounds [4 x float], ptr %5, i64 0, i64 1
  %6 = load float, ptr %arrayidx3, align 4
  %7 = load ptr, ptr %v.addr, align 8
  %8 = getelementptr inbounds %class.b3Vector3, ptr %7, i32 0, i32 0
  %arrayidx4 = getelementptr inbounds [4 x float], ptr %8, i64 0, i64 1
  %9 = load float, ptr %arrayidx4, align 4
  %mul5 = fmul float %6, %9
  %10 = call float @llvm.fmuladd.f32(float %1, float %4, float %mul5)
  %11 = getelementptr inbounds %class.b3Vector3, ptr %this1, i32 0, i32 0
  %arrayidx6 = getelementptr inbounds [4 x float], ptr %11, i64 0, i64 2
  %12 = load float, ptr %arrayidx6, align 8
  %13 = load ptr, ptr %v.addr, align 8
  %14 = getelementptr inbounds %class.b3Vector3, ptr %13, i32 0, i32 0
  %arrayidx7 = getelementptr inbounds [4 x float], ptr %14, i64 0, i64 2
  %15 = load float, ptr %arrayidx7, align 8
  %16 = call float @llvm.fmuladd.f32(float %12, float %15, float %10)
  ret float %16
}

; Function Attrs: mustprogress nounwind uwtable
define linkonce_odr dso_local void @_ZN9b3Vector38setValueERKfS1_S1_(ptr noundef nonnull align 16 dereferenceable(16) %this, ptr noundef nonnull align 4 dereferenceable(4) %_x, ptr noundef nonnull align 4 dereferenceable(4) %_y, ptr noundef nonnull align 4 dereferenceable(4) %_z) #4 comdat align 2 {
entry:
  %this.addr = alloca ptr, align 8
  %_x.addr = alloca ptr, align 8
  %_y.addr = alloca ptr, align 8
  %_z.addr = alloca ptr, align 8
  store ptr %this, ptr %this.addr, align 8
  store ptr %_x, ptr %_x.addr, align 8
  store ptr %_y, ptr %_y.addr, align 8
  store ptr %_z, ptr %_z.addr, align 8
  %this1 = load ptr, ptr %this.addr, align 8
  %0 = load ptr, ptr %_x.addr, align 8
  %1 = load float, ptr %0, align 4
  %2 = getelementptr inbounds %class.b3Vector3, ptr %this1, i32 0, i32 0
  %arrayidx = getelementptr inbounds [4 x float], ptr %2, i64 0, i64 0
  store float %1, ptr %arrayidx, align 16
  %3 = load ptr, ptr %_y.addr, align 8
  %4 = load float, ptr %3, align 4
  %5 = getelementptr inbounds %class.b3Vector3, ptr %this1, i32 0, i32 0
  %arrayidx2 = getelementptr inbounds [4 x float], ptr %5, i64 0, i64 1
  store float %4, ptr %arrayidx2, align 4
  %6 = load ptr, ptr %_z.addr, align 8
  %7 = load float, ptr %6, align 4
  %8 = getelementptr inbounds %class.b3Vector3, ptr %this1, i32 0, i32 0
  %arrayidx3 = getelementptr inbounds [4 x float], ptr %8, i64 0, i64 2
  store float %7, ptr %arrayidx3, align 8
  %9 = getelementptr inbounds %class.b3Vector3, ptr %this1, i32 0, i32 0
  %arrayidx4 = getelementptr inbounds [4 x float], ptr %9, i64 0, i64 3
  store float 0.000000e+00, ptr %arrayidx4, align 4
  ret void
}

; Function Attrs: mustprogress uwtable
define linkonce_odr dso_local noundef float @_Z5b3DotRK9b3Vector3S1_(ptr noundef nonnull align 16 dereferenceable(16) %v1, ptr noundef nonnull align 16 dereferenceable(16) %v2) #0 comdat {
entry:
  %v1.addr = alloca ptr, align 8
  %v2.addr = alloca ptr, align 8
  store ptr %v1, ptr %v1.addr, align 8
  store ptr %v2, ptr %v2.addr, align 8
  %0 = load ptr, ptr %v1.addr, align 8
  %1 = load ptr, ptr %v2.addr, align 8
  %call = call noundef float @_ZNK9b3Vector33dotERKS_(ptr noundef nonnull align 16 dereferenceable(16) %0, ptr noundef nonnull align 16 dereferenceable(16) %1)
  ret float %call
}

; Function Attrs: mustprogress nounwind uwtable
define linkonce_odr dso_local noundef nonnull align 16 dereferenceable(32) ptr @_ZNK20b3AlignedObjectArrayI9b3GpuFaceEixEi(ptr noundef nonnull align 8 dereferenceable(25) %this, i32 noundef %n) #4 comdat align 2 {
entry:
  %this.addr = alloca ptr, align 8
  %n.addr = alloca i32, align 4
  store ptr %this, ptr %this.addr, align 8
  store i32 %n, ptr %n.addr, align 4
  %this1 = load ptr, ptr %this.addr, align 8
  %m_data = getelementptr inbounds %class.b3AlignedObjectArray, ptr %this1, i32 0, i32 5
  %0 = load ptr, ptr %m_data, align 8
  %1 = load i32, ptr %n.addr, align 4
  %idxprom = sext i32 %1 to i64
  %arrayidx = getelementptr inbounds %struct.b3GpuFace, ptr %0, i64 %idxprom
  ret ptr %arrayidx
}

; Function Attrs: mustprogress uwtable
define linkonce_odr dso_local { <2 x float>, <2 x float> } @_Z13b3MakeVector3fff(float noundef %x, float noundef %y, float noundef %z) #0 comdat {
entry:
  %retval = alloca %class.b3Vector3, align 16
  %x.addr = alloca float, align 4
  %y.addr = alloca float, align 4
  %z.addr = alloca float, align 4
  store float %x, ptr %x.addr, align 4
  store float %y, ptr %y.addr, align 4
  store float %z, ptr %z.addr, align 4
  call void @_ZN9b3Vector38setValueERKfS1_S1_(ptr noundef nonnull align 16 dereferenceable(16) %retval, ptr noundef nonnull align 4 dereferenceable(4) %x.addr, ptr noundef nonnull align 4 dereferenceable(4) %y.addr, ptr noundef nonnull align 4 dereferenceable(4) %z.addr)
  %coerce.dive = getelementptr inbounds %class.b3Vector3, ptr %retval, i32 0, i32 0
  %coerce.dive1 = getelementptr inbounds %union.anon, ptr %coerce.dive, i32 0, i32 0
  %0 = load { <2 x float>, <2 x float> }, ptr %coerce.dive1, align 16
  ret { <2 x float>, <2 x float> } %0
}

; Function Attrs: mustprogress uwtable
define dso_local noundef zeroext i1 @_Z9rayConvexRK9b3Vector3S1_RK22b3ConvexPolyhedronDataRK20b3AlignedObjectArrayI9b3GpuFaceERfRS_(ptr noundef nonnull align 16 dereferenceable(16) %rayFromLocal, ptr noundef nonnull align 16 dereferenceable(16) %rayToLocal, ptr noundef nonnull align 16 dereferenceable(96) %poly, ptr noundef nonnull align 8 dereferenceable(25) %faces, ptr noundef nonnull align 4 dereferenceable(4) %hitFraction, ptr noundef nonnull align 16 dereferenceable(16) %hitNormal) #6 {
entry:
  %retval = alloca i1, align 1
  %rayFromLocal.addr = alloca ptr, align 8
  %rayToLocal.addr = alloca ptr, align 8
  %poly.addr = alloca ptr, align 8
  %faces.addr = alloca ptr, align 8
  %hitFraction.addr = alloca ptr, align 8
  %hitNormal.addr = alloca ptr, align 8
  %exitFraction = alloca float, align 4
  %enterFraction = alloca float, align 4
  %curHitNormal = alloca %class.b3Vector3, align 16
  %i = alloca i32, align 4
  %face = alloca ptr, align 8
  %fromPlaneDist = alloca float, align 4
  %toPlaneDist = alloca float, align 4
  %fraction = alloca float, align 4
  %fraction19 = alloca float, align 4
  store ptr %rayFromLocal, ptr %rayFromLocal.addr, align 8
  store ptr %rayToLocal, ptr %rayToLocal.addr, align 8
  store ptr %poly, ptr %poly.addr, align 8
  store ptr %faces, ptr %faces.addr, align 8
  store ptr %hitFraction, ptr %hitFraction.addr, align 8
  store ptr %hitNormal, ptr %hitNormal.addr, align 8
  %0 = load ptr, ptr %hitFraction.addr, align 8
  %1 = load float, ptr %0, align 4
  store float %1, ptr %exitFraction, align 4
  store float 0xBFB99999A0000000, ptr %enterFraction, align 4
  %call = call { <2 x float>, <2 x float> } @_Z13b3MakeVector3fff(float noundef 0.000000e+00, float noundef 0.000000e+00, float noundef 0.000000e+00)
  %coerce.dive = getelementptr inbounds %class.b3Vector3, ptr %curHitNormal, i32 0, i32 0
  %coerce.dive1 = getelementptr inbounds %union.anon, ptr %coerce.dive, i32 0, i32 0
  %2 = getelementptr inbounds { <2 x float>, <2 x float> }, ptr %coerce.dive1, i32 0, i32 0
  %3 = extractvalue { <2 x float>, <2 x float> } %call, 0
  store <2 x float> %3, ptr %2, align 16
  %4 = getelementptr inbounds { <2 x float>, <2 x float> }, ptr %coerce.dive1, i32 0, i32 1
  %5 = extractvalue { <2 x float>, <2 x float> } %call, 1
  store <2 x float> %5, ptr %4, align 8
  store i32 0, ptr %i, align 4
  br label %for.cond

for.cond:                                         ; preds = %for.inc, %entry
  %6 = load i32, ptr %i, align 4
  %7 = load ptr, ptr %poly.addr, align 8
  %m_numFaces = getelementptr inbounds %struct.b3ConvexPolyhedronData, ptr %7, i32 0, i32 6
  %8 = load i32, ptr %m_numFaces, align 8
  %cmp = icmp slt i32 %6, %8
  br i1 %cmp, label %for.body, label %for.end

for.body:                                         ; preds = %for.cond
  %9 = load ptr, ptr %faces.addr, align 8
  %10 = load ptr, ptr %poly.addr, align 8
  %m_faceOffset = getelementptr inbounds %struct.b3ConvexPolyhedronData, ptr %10, i32 0, i32 5
  %11 = load i32, ptr %m_faceOffset, align 4
  %12 = load i32, ptr %i, align 4
  %add = add nsw i32 %11, %12
  %call2 = call noundef nonnull align 16 dereferenceable(32) ptr @_ZNK20b3AlignedObjectArrayI9b3GpuFaceEixEi(ptr noundef nonnull align 8 dereferenceable(25) %9, i32 noundef %add)
  store ptr %call2, ptr %face, align 8
  %13 = load ptr, ptr %rayFromLocal.addr, align 8
  %14 = load ptr, ptr %face, align 8
  %m_plane = getelementptr inbounds %struct.b3GpuFace, ptr %14, i32 0, i32 0
  %call3 = call noundef float @_Z5b3DotRK9b3Vector3S1_(ptr noundef nonnull align 16 dereferenceable(16) %13, ptr noundef nonnull align 16 dereferenceable(16) %m_plane)
  %15 = load ptr, ptr %face, align 8
  %m_plane4 = getelementptr inbounds %struct.b3GpuFace, ptr %15, i32 0, i32 0
  %16 = getelementptr inbounds %class.b3Vector3, ptr %m_plane4, i32 0, i32 0
  %w = getelementptr inbounds %struct.anon, ptr %16, i32 0, i32 3
  %17 = load float, ptr %w, align 4
  %add5 = fadd float %call3, %17
  store float %add5, ptr %fromPlaneDist, align 4
  %18 = load ptr, ptr %rayToLocal.addr, align 8
  %19 = load ptr, ptr %face, align 8
  %m_plane6 = getelementptr inbounds %struct.b3GpuFace, ptr %19, i32 0, i32 0
  %call7 = call noundef float @_Z5b3DotRK9b3Vector3S1_(ptr noundef nonnull align 16 dereferenceable(16) %18, ptr noundef nonnull align 16 dereferenceable(16) %m_plane6)
  %20 = load ptr, ptr %face, align 8
  %m_plane8 = getelementptr inbounds %struct.b3GpuFace, ptr %20, i32 0, i32 0
  %21 = getelementptr inbounds %class.b3Vector3, ptr %m_plane8, i32 0, i32 0
  %w9 = getelementptr inbounds %struct.anon, ptr %21, i32 0, i32 3
  %22 = load float, ptr %w9, align 4
  %add10 = fadd float %call7, %22
  store float %add10, ptr %toPlaneDist, align 4
  %23 = load float, ptr %fromPlaneDist, align 4
  %cmp11 = fcmp olt float %23, 0.000000e+00
  br i1 %cmp11, label %if.then, label %if.else

if.then:                                          ; preds = %for.body
  %24 = load float, ptr %toPlaneDist, align 4
  %cmp12 = fcmp oge float %24, 0.000000e+00
  br i1 %cmp12, label %if.then13, label %if.end16

if.then13:                                        ; preds = %if.then
  %25 = load float, ptr %fromPlaneDist, align 4
  %26 = load float, ptr %fromPlaneDist, align 4
  %27 = load float, ptr %toPlaneDist, align 4
  %sub = fsub float %26, %27
  %div = fdiv float %25, %sub
  store float %div, ptr %fraction, align 4
  %28 = load float, ptr %exitFraction, align 4
  %29 = load float, ptr %fraction, align 4
  %cmp14 = fcmp ogt float %28, %29
  br i1 %cmp14, label %if.then15, label %if.end

if.then15:                                        ; preds = %if.then13
  %30 = load float, ptr %fraction, align 4
  store float %30, ptr %exitFraction, align 4
  br label %if.end

if.end:                                           ; preds = %if.then15, %if.then13
  br label %if.end16

if.end16:                                         ; preds = %if.end, %if.then
  br label %if.end29

if.else:                                          ; preds = %for.body
  %31 = load float, ptr %toPlaneDist, align 4
  %cmp17 = fcmp olt float %31, 0.000000e+00
  br i1 %cmp17, label %if.then18, label %if.else27

if.then18:                                        ; preds = %if.else
  %32 = load float, ptr %fromPlaneDist, align 4
  %33 = load float, ptr %fromPlaneDist, align 4
  %34 = load float, ptr %toPlaneDist, align 4
  %sub20 = fsub float %33, %34
  %div21 = fdiv float %32, %sub20
  store float %div21, ptr %fraction19, align 4
  %35 = load float, ptr %enterFraction, align 4
  %36 = load float, ptr %fraction19, align 4
  %cmp22 = fcmp ole float %35, %36
  br i1 %cmp22, label %if.then23, label %if.end26

if.then23:                                        ; preds = %if.then18
  %37 = load float, ptr %fraction19, align 4
  store float %37, ptr %enterFraction, align 4
  %38 = load ptr, ptr %face, align 8
  %m_plane24 = getelementptr inbounds %struct.b3GpuFace, ptr %38, i32 0, i32 0
  call void @llvm.memcpy.p0.p0.i64(ptr align 16 %curHitNormal, ptr align 16 %m_plane24, i64 16, i1 false)
  %39 = getelementptr inbounds %class.b3Vector3, ptr %curHitNormal, i32 0, i32 0
  %w25 = getelementptr inbounds %struct.anon, ptr %39, i32 0, i32 3
  store float 0.000000e+00, ptr %w25, align 4
  br label %if.end26

if.end26:                                         ; preds = %if.then23, %if.then18
  br label %if.end28

if.else27:                                        ; preds = %if.else
  store i1 false, ptr %retval, align 1
  br label %return

if.end28:                                         ; preds = %if.end26
  br label %if.end29

if.end29:                                         ; preds = %if.end28, %if.end16
  %40 = load float, ptr %exitFraction, align 4
  %41 = load float, ptr %enterFraction, align 4
  %cmp30 = fcmp ole float %40, %41
  br i1 %cmp30, label %if.then31, label %if.end32

if.then31:                                        ; preds = %if.end29
  store i1 false, ptr %retval, align 1
  br label %return

if.end32:                                         ; preds = %if.end29
  br label %for.inc

for.inc:                                          ; preds = %if.end32
  %42 = load i32, ptr %i, align 4
  %inc = add nsw i32 %42, 1
  store i32 %inc, ptr %i, align 4
  br label %for.cond, !llvm.loop !5

for.end:                                          ; preds = %for.cond
  %43 = load float, ptr %enterFraction, align 4
  %cmp33 = fcmp olt float %43, 0.000000e+00
  br i1 %cmp33, label %if.then34, label %if.end35

if.then34:                                        ; preds = %for.end
  store i1 false, ptr %retval, align 1
  br label %return

if.end35:                                         ; preds = %for.end
  %44 = load float, ptr %enterFraction, align 4
  %45 = load ptr, ptr %hitFraction.addr, align 8
  store float %44, ptr %45, align 4
  %46 = load ptr, ptr %hitNormal.addr, align 8
  call void @llvm.memcpy.p0.p0.i64(ptr align 16 %46, ptr align 16 %curHitNormal, i64 16, i1 false)
  store i1 true, ptr %retval, align 1
  br label %return

return:                                           ; preds = %if.end35, %if.then34, %if.then31, %if.else27
  %47 = load i1, ptr %retval, align 1
  ret i1 %47
}