; Function Attrs: mustprogress nofree norecurse nosync nounwind memory(read, argmem: readwrite, inaccessiblemem: none) uwtable
define dso_local noundef zeroext i1 @_Z9rayConvexRK9b3Vector3S1_RK22b3ConvexPolyhedronDataRK20b3AlignedObjectArrayI9b3GpuFaceERfRS_(ptr nocapture noundef nonnull readonly align 16 dereferenceable(16) %rayFromLocal, ptr nocapture noundef nonnull readonly align 16 dereferenceable(16) %rayToLocal, ptr nocapture noundef nonnull readonly align 16 dereferenceable(96) %poly, ptr nocapture noundef nonnull readonly align 8 dereferenceable(25) %faces, ptr nocapture noundef nonnull align 4 dereferenceable(4) %hitFraction, ptr nocapture noundef nonnull writeonly align 16 dereferenceable(16) %hitNormal) local_unnamed_addr #8 {
entry:
  %m_numFaces = getelementptr inbounds i8, ptr %poly, i64 72
  %0 = load i32, ptr %m_numFaces, align 8
  %cmp32 = icmp sgt i32 %0, 0
  br i1 %cmp32, label %for.body.lr.ph, label %return

for.body.lr.ph:                                   ; preds = %entry
  %1 = load float, ptr %hitFraction, align 4
  %m_faceOffset = getelementptr inbounds i8, ptr %poly, i64 68
  %2 = load i32, ptr %m_faceOffset, align 4
  %m_data.i = getelementptr inbounds i8, ptr %faces, i64 16
  %3 = load ptr, ptr %m_data.i, align 8
  %4 = load float, ptr %rayFromLocal, align 16
  %arrayidx3.i.i = getelementptr inbounds i8, ptr %rayFromLocal, i64 4
  %5 = load float, ptr %arrayidx3.i.i, align 4
  %arrayidx6.i.i = getelementptr inbounds i8, ptr %rayFromLocal, i64 8
  %6 = load float, ptr %arrayidx6.i.i, align 8
  %7 = load float, ptr %rayToLocal, align 16
  %arrayidx3.i.i24 = getelementptr inbounds i8, ptr %rayToLocal, i64 4
  %8 = load float, ptr %arrayidx3.i.i24, align 4
  %arrayidx6.i.i27 = getelementptr inbounds i8, ptr %rayToLocal, i64 8
  %9 = load float, ptr %arrayidx6.i.i27, align 8
  %10 = sext i32 %2 to i64
  %wide.trip.count = zext nneg i32 %0 to i64
  %invariant.gep = getelementptr %struct.b3GpuFace, ptr %3, i64 %10
  br label %for.body

for.cond:                                         ; preds = %if.end29
  %indvars.iv.next = add nuw nsw i64 %indvars.iv, 1
  %exitcond.not = icmp eq i64 %indvars.iv.next, %wide.trip.count
  br i1 %exitcond.not, label %for.end, label %for.body, !llvm.loop !5

for.body:                                         ; preds = %for.body.lr.ph, %for.cond
  %indvars.iv = phi i64 [ 0, %for.body.lr.ph ], [ %indvars.iv.next, %for.cond ]
  %exitFraction.037 = phi float [ %1, %for.body.lr.ph ], [ %exitFraction.1, %for.cond ]
  %enterFraction.036 = phi float [ 0xBFB99999A0000000, %for.body.lr.ph ], [ %enterFraction.1, %for.cond ]
  %curHitNormal.sroa.3.035 = phi <2 x float> [ zeroinitializer, %for.body.lr.ph ], [ %curHitNormal.sroa.3.1, %for.cond ]
  %curHitNormal.sroa.0.034 = phi <2 x float> [ zeroinitializer, %for.body.lr.ph ], [ %curHitNormal.sroa.0.1, %for.cond ]
  %gep = getelementptr %struct.b3GpuFace, ptr %invariant.gep, i64 %indvars.iv
  %11 = load float, ptr %gep, align 16
  %arrayidx4.i.i = getelementptr inbounds i8, ptr %gep, i64 4
  %12 = load float, ptr %arrayidx4.i.i, align 4
  %mul5.i.i = fmul float %5, %12
  %13 = tail call float @llvm.fmuladd.f32(float %4, float %11, float %mul5.i.i)
  %arrayidx7.i.i = getelementptr inbounds i8, ptr %gep, i64 8
  %14 = load float, ptr %arrayidx7.i.i, align 8
  %15 = tail call noundef float @llvm.fmuladd.f32(float %6, float %14, float %13)
  %w = getelementptr inbounds i8, ptr %gep, i64 12
  %16 = load float, ptr %w, align 4
  %add5 = fadd float %15, %16
  %mul5.i.i26 = fmul float %12, %8
  %17 = tail call float @llvm.fmuladd.f32(float %7, float %11, float %mul5.i.i26)
  %18 = tail call noundef float @llvm.fmuladd.f32(float %9, float %14, float %17)
  %add10 = fadd float %16, %18
  %cmp11 = fcmp olt float %add5, 0.000000e+00
  br i1 %cmp11, label %if.then, label %if.else

if.then:                                          ; preds = %for.body
  %cmp12 = fcmp ult float %add10, 0.000000e+00
  br i1 %cmp12, label %if.end29, label %if.then13

if.then13:                                        ; preds = %if.then
  %sub = fsub float %add5, %add10
  %div = fdiv float %add5, %sub
  %cmp14 = fcmp ogt float %exitFraction.037, %div
  br i1 %cmp14, label %if.then15, label %if.end29

if.then15:                                        ; preds = %if.then13
  br label %if.end29

if.else:                                          ; preds = %for.body
  %cmp17 = fcmp olt float %add10, 0.000000e+00
  br i1 %cmp17, label %if.then18, label %return

if.then18:                                        ; preds = %if.else
  %sub20 = fsub float %add5, %add10
  %div21 = fdiv float %add5, %sub20
  %cmp22 = fcmp ugt float %enterFraction.036, %div21
  br i1 %cmp22, label %if.end29, label %if.then23

if.then23:                                        ; preds = %if.then18
  %curHitNormal.sroa.0.0.copyload = load <2 x float>, ptr %gep, align 16
  %curHitNormal.sroa.3.0.copyload = load <2 x float>, ptr %arrayidx7.i.i, align 8
  %curHitNormal.sroa.3.12.vec.insert = insertelement <2 x float> %curHitNormal.sroa.3.0.copyload, float 0.000000e+00, i64 1
  br label %if.end29

if.end29:                                         ; preds = %if.then23, %if.then18, %if.then, %if.then15, %if.then13
  %curHitNormal.sroa.0.1 = phi <2 x float> [ %curHitNormal.sroa.0.034, %if.then15 ], [ %curHitNormal.sroa.0.034, %if.then13 ], [ %curHitNormal.sroa.0.034, %if.then ], [ %curHitNormal.sroa.0.0.copyload, %if.then23 ], [ %curHitNormal.sroa.0.034, %if.then18 ]
  %curHitNormal.sroa.3.1 = phi <2 x float> [ %curHitNormal.sroa.3.035, %if.then15 ], [ %curHitNormal.sroa.3.035, %if.then13 ], [ %curHitNormal.sroa.3.035, %if.then ], [ %curHitNormal.sroa.3.12.vec.insert, %if.then23 ], [ %curHitNormal.sroa.3.035, %if.then18 ]
  %enterFraction.1 = phi float [ %enterFraction.036, %if.then15 ], [ %enterFraction.036, %if.then13 ], [ %enterFraction.036, %if.then ], [ %div21, %if.then23 ], [ %enterFraction.036, %if.then18 ]
  %exitFraction.1 = phi float [ %div, %if.then15 ], [ %exitFraction.037, %if.then13 ], [ %exitFraction.037, %if.then ], [ %exitFraction.037, %if.then23 ], [ %exitFraction.037, %if.then18 ]
  %cmp30 = fcmp ugt float %exitFraction.1, %enterFraction.1
  br i1 %cmp30, label %for.cond, label %return

for.end:                                          ; preds = %for.cond
  %cmp33 = fcmp olt float %enterFraction.1, 0.000000e+00
  br i1 %cmp33, label %return, label %if.end35

if.end35:                                         ; preds = %for.end
  store float %enterFraction.1, ptr %hitFraction, align 4
  store <2 x float> %curHitNormal.sroa.0.1, ptr %hitNormal, align 16
  %curHitNormal.sroa.3.0..sroa_idx = getelementptr inbounds i8, ptr %hitNormal, i64 8
  store <2 x float> %curHitNormal.sroa.3.1, ptr %curHitNormal.sroa.3.0..sroa_idx, align 8
  br label %return

return:                                           ; preds = %if.end29, %if.else, %entry, %for.end, %if.end35
  %retval.0 = phi i1 [ true, %if.end35 ], [ false, %for.end ], [ false, %entry ], [ false, %if.else ], [ false, %if.end29 ]
  ret i1 %retval.0
}